; Function Attrs: mustprogress uwtable
define dso_local void @_ZN4absl13cord_internal12CordRepBtree4DumpEPKNS0_7CordRepESt17basic_string_viewIcSt11char_traitsIcEEbRSo(ptr noundef %0, i64 %1, ptr %2, i1 noundef zeroext %3, ptr noundef nonnull align 8 dereferenceable(8) %4) local_unnamed_addr #3 align 2 {
  %6 = alloca i8, align 1
  %7 = tail call noundef nonnull align 8 dereferenceable(8) ptr @_ZSt16__ostream_insertIcSt11char_traitsIcEERSt13basic_ostreamIT_T0_ES6_PKS3_l(ptr noundef nonnull align 8 dereferenceable(8) %4, ptr noundef nonnull @.str, i64 noundef 36)
  %8 = icmp eq i64 %1, 0
  br i1 %8, label %22, label %9

9:                                                ; preds = %5
  %10 = tail call noundef nonnull align 8 dereferenceable(8) ptr @_ZSt16__ostream_insertIcSt11char_traitsIcEERSt13basic_ostreamIT_T0_ES6_PKS3_l(ptr noundef nonnull align 8 dereferenceable(8) %4, ptr noundef %2, i64 noundef %1)
  call void @llvm.lifetime.start.p0(i64 1, ptr nonnull %6)
  store i8 10, ptr %6, align 1, !tbaa !4
  %11 = load ptr, ptr %10, align 8, !tbaa !51
  %12 = getelementptr i8, ptr %11, i64 -24
  %13 = load i64, ptr %12, align 8
  %14 = getelementptr inbounds i8, ptr %10, i64 %13
  %15 = getelementptr inbounds nuw i8, ptr %14, i64 16
  %16 = load i64, ptr %15, align 8, !tbaa !53
  %.not.i = icmp eq i64 %16, 0
  br i1 %.not.i, label %19, label %17

17:                                               ; preds = %9
  %18 = call noundef nonnull align 8 dereferenceable(8) ptr @_ZSt16__ostream_insertIcSt11char_traitsIcEERSt13basic_ostreamIT_T0_ES6_PKS3_l(ptr noundef nonnull align 8 dereferenceable(8) %10, ptr noundef nonnull %6, i64 noundef 1)
  br label %_ZStlsISt11char_traitsIcEERSt13basic_ostreamIcT_ES5_c.exit

19:                                               ; preds = %9
  %20 = tail call noundef nonnull align 8 dereferenceable(8) ptr @_ZNSo3putEc(ptr noundef nonnull align 8 dereferenceable(8) %10, i8 noundef signext 10)
  br label %_ZStlsISt11char_traitsIcEERSt13basic_ostreamIcT_ES5_c.exit

_ZStlsISt11char_traitsIcEERSt13basic_ostreamIcT_ES5_c.exit: ; preds = %17, %19
  call void @llvm.lifetime.end.p0(i64 1, ptr nonnull %6)
  %21 = call noundef nonnull align 8 dereferenceable(8) ptr @_ZSt16__ostream_insertIcSt11char_traitsIcEERSt13basic_ostreamIT_T0_ES6_PKS3_l(ptr noundef nonnull align 8 dereferenceable(8) %4, ptr noundef nonnull @.str.1, i64 noundef 36)
  br label %22

22:                                               ; preds = %_ZStlsISt11char_traitsIcEERSt13basic_ostreamIcT_ES5_c.exit, %5
  %.not = icmp eq ptr %0, null
  br i1 %.not, label %24, label %23

23:                                               ; preds = %22
  call fastcc void @_ZN4absl13cord_internal12_GLOBAL__N_17DumpAllEPKNS0_7CordRepEbRSom(ptr noundef nonnull %0, i1 noundef zeroext %3, ptr noundef nonnull align 8 dereferenceable(8) %4, i64 noundef 0)
  br label %26

24:                                               ; preds = %22
  %25 = call noundef nonnull align 8 dereferenceable(8) ptr @_ZSt16__ostream_insertIcSt11char_traitsIcEERSt13basic_ostreamIT_T0_ES6_PKS3_l(ptr noundef nonnull align 8 dereferenceable(8) %4, ptr noundef nonnull @.str.2, i64 noundef 5)
  br label %26

26:                                               ; preds = %24, %23
  ret void
}